; Function Attrs: mustprogress uwtable
define internal noundef zeroext i1 @"_ZNSt17_Function_handlerIFvSt6vectorIcSaIcEEEZN7cmCTest14RunMakeCommandERKNSt7__cxx1112basic_stringIcSt11char_traitsIcES1_EERS9_PiPKcNSt6chrono8durationIdSt5ratioILl1ELl1EEEERSoN15cmProcessOutput8EncodingEE3$_0E10_M_managerERSt9_Any_dataRKSQ_St18_Manager_operation"(ptr nocapture noundef nonnull align 8 dereferenceable(16) %0, ptr nocapture noundef nonnull readonly align 8 dereferenceable(16) %1, i32 noundef %2) #3 align 2 {
  switch i32 %2, label %"_ZNSt14_Function_base13_Base_managerIZN7cmCTest14RunMakeCommandERKNSt7__cxx1112basic_stringIcSt11char_traitsIcESaIcEEERS7_PiPKcNSt6chrono8durationIdSt5ratioILl1ELl1EEEERSoN15cmProcessOutput8EncodingEE3$_0E10_M_managerERSt9_Any_dataRKSO_St18_Manager_operation.exit" [
    i32 0, label %4
    i32 1, label %5
    i32 3, label %8
    i32 2, label %6
  ]

4:                                                ; preds = %3
  store ptr @"_ZTIZN7cmCTest14RunMakeCommandERKNSt7__cxx1112basic_stringIcSt11char_traitsIcESaIcEEERS5_PiPKcNSt6chrono8durationIdSt5ratioILl1ELl1EEEERSoN15cmProcessOutput8EncodingEE3$_0", ptr %0, align 8
  br label %"_ZNSt14_Function_base13_Base_managerIZN7cmCTest14RunMakeCommandERKNSt7__cxx1112basic_stringIcSt11char_traitsIcESaIcEEERS7_PiPKcNSt6chrono8durationIdSt5ratioILl1ELl1EEEERSoN15cmProcessOutput8EncodingEE3$_0E10_M_managerERSt9_Any_dataRKSO_St18_Manager_operation.exit"

5:                                                ; preds = %3
  %.val = load ptr, ptr %1, align 8
  store ptr %.val, ptr %0, align 8
  br label %"_ZNSt14_Function_base13_Base_managerIZN7cmCTest14RunMakeCommandERKNSt7__cxx1112basic_stringIcSt11char_traitsIcESaIcEEERS7_PiPKcNSt6chrono8durationIdSt5ratioILl1ELl1EEEERSoN15cmProcessOutput8EncodingEE3$_0E10_M_managerERSt9_Any_dataRKSO_St18_Manager_operation.exit"

6:                                                ; preds = %3
  %.val6 = load ptr, ptr %1, align 8
  %7 = tail call noalias noundef nonnull dereferenceable(56) ptr @_Znwm(i64 noundef 56) #32
  tail call void @llvm.memcpy.p0.p0.i64(ptr noundef nonnull align 16 dereferenceable(56) %7, ptr noundef nonnull align 8 dereferenceable(56) %.val6, i64 56, i1 false)
  store ptr %7, ptr %0, align 8
  br label %"_ZNSt14_Function_base13_Base_managerIZN7cmCTest14RunMakeCommandERKNSt7__cxx1112basic_stringIcSt11char_traitsIcESaIcEEERS7_PiPKcNSt6chrono8durationIdSt5ratioILl1ELl1EEEERSoN15cmProcessOutput8EncodingEE3$_0E10_M_managerERSt9_Any_dataRKSO_St18_Manager_operation.exit"

8:                                                ; preds = %3
  %.val7.i = load ptr, ptr %0, align 8
  %9 = icmp eq ptr %.val7.i, null
  br i1 %9, label %"_ZNSt14_Function_base13_Base_managerIZN7cmCTest14RunMakeCommandERKNSt7__cxx1112basic_stringIcSt11char_traitsIcESaIcEEERS7_PiPKcNSt6chrono8durationIdSt5ratioILl1ELl1EEEERSoN15cmProcessOutput8EncodingEE3$_0E10_M_managerERSt9_Any_dataRKSO_St18_Manager_operation.exit", label %10

10:                                               ; preds = %8
  tail call void @_ZdlPv(ptr noundef nonnull %.val7.i) #33
  br label %"_ZNSt14_Function_base13_Base_managerIZN7cmCTest14RunMakeCommandERKNSt7__cxx1112basic_stringIcSt11char_traitsIcESaIcEEERS7_PiPKcNSt6chrono8durationIdSt5ratioILl1ELl1EEEERSoN15cmProcessOutput8EncodingEE3$_0E10_M_managerERSt9_Any_dataRKSO_St18_Manager_operation.exit"

"_ZNSt14_Function_base13_Base_managerIZN7cmCTest14RunMakeCommandERKNSt7__cxx1112basic_stringIcSt11char_traitsIcESaIcEEERS7_PiPKcNSt6chrono8durationIdSt5ratioILl1ELl1EEEERSoN15cmProcessOutput8EncodingEE3$_0E10_M_managerERSt9_Any_dataRKSO_St18_Manager_operation.exit": ; preds = %3, %10, %8, %6, %5, %4
  ret i1 false
}